; Function Attrs: mustprogress uwtable
define internal noundef ptr @_ZN4leanL20lean_io_bind_task_fnEP11lean_objectS1_(ptr noundef %0, ptr noundef %1) #0 personality ptr @__gxx_personality_v0 {
  %3 = alloca %"class.lean::object_ref", align 8
  call void @llvm.lifetime.start.p0(i64 8, ptr nonnull %3) #27
  %4 = tail call noundef ptr @lean_apply_2(ptr noundef %0, ptr noundef %1, ptr noundef nonnull inttoptr (i64 1 to ptr))
  store ptr %4, ptr %3, align 8, !tbaa !42
  %5 = getelementptr i8, ptr %4, i64 8
  %.val.i = load ptr, ptr %5, align 8, !tbaa !3
  %6 = ptrtoint ptr %.val.i to i64
  %7 = and i64 %6, 1
  %.not.i.i = icmp eq i64 %7, 0
  br i1 %.not.i.i, label %8, label %_ZN4lean10object_refD2Ev.exit

8:                                                ; preds = %2
  %.val.i.i.i = load i32, ptr %.val.i, align 4, !tbaa !7
  %9 = icmp sgt i32 %.val.i.i.i, 0
  br i1 %9, label %10, label %12, !prof !10

10:                                               ; preds = %8
  %11 = add nuw nsw i32 %.val.i.i.i, 1
  store i32 %11, ptr %.val.i, align 4, !tbaa !7
  br label %_ZN4lean10object_refD2Ev.exit

12:                                               ; preds = %8
  %.not.i.i.i = icmp eq i32 %.val.i.i.i, 0
  br i1 %.not.i.i.i, label %_ZN4lean10object_refD2Ev.exit, label %13

13:                                               ; preds = %12
  invoke void @lean_inc_ref_cold(ptr noundef nonnull %.val.i)
          to label %_ZN4lean10object_refD2Ev.exit unwind label %26

_ZN4lean10object_refD2Ev.exit:                    ; preds = %12, %10, %2, %13
  %14 = ptrtoint ptr %4 to i64
  %15 = and i64 %14, 1
  %.not.i.i7 = icmp eq i64 %15, 0
  br i1 %.not.i.i7, label %16, label %_ZN4lean10object_refD2Ev.exit9

16:                                               ; preds = %_ZN4lean10object_refD2Ev.exit
  %17 = load i32, ptr %4, align 4, !tbaa !7
  %18 = icmp sgt i32 %17, 1
  br i1 %18, label %19, label %21, !prof !10

19:                                               ; preds = %16
  %20 = add nsw i32 %17, -1
  store i32 %20, ptr %4, align 4, !tbaa !7
  br label %_ZN4lean10object_refD2Ev.exit9

21:                                               ; preds = %16
  %.not.i.i.i8 = icmp eq i32 %17, 0
  br i1 %.not.i.i.i8, label %_ZN4lean10object_refD2Ev.exit9, label %22

22:                                               ; preds = %21
  invoke void @lean_dec_ref_cold(ptr noundef nonnull %4)
          to label %_ZN4lean10object_refD2Ev.exit9 unwind label %23

23:                                               ; preds = %22
  %24 = landingpad { ptr, i32 }
          catch ptr null
  %25 = extractvalue { ptr, i32 } %24, 0
  tail call void @__clang_call_terminate(ptr %25) #32
  unreachable

_ZN4lean10object_refD2Ev.exit9:                   ; preds = %_ZN4lean10object_refD2Ev.exit, %19, %21, %22
  call void @llvm.lifetime.end.p0(i64 8, ptr nonnull %3) #27
  ret ptr %.val.i

26:                                               ; preds = %13
  %27 = landingpad { ptr, i32 }
          cleanup
  call void @_ZN4lean10object_refD2Ev(ptr noundef nonnull align 8 dereferenceable(8) %3) #27
  call void @llvm.lifetime.end.p0(i64 8, ptr nonnull %3) #27
  resume { ptr, i32 } %27
}